
button_irq.bin:     file format binary


Disassembly of section .data:

00000000 <.data>:
   0:	e59ff0e4 	ldr	pc, [pc, #228]	; 0xec
   4:	e59ff0e4 	ldr	pc, [pc, #228]	; 0xf0
   8:	e59ff0e4 	ldr	pc, [pc, #228]	; 0xf4
   c:	e59ff0e4 	ldr	pc, [pc, #228]	; 0xf8
  10:	e59ff0e4 	ldr	pc, [pc, #228]	; 0xfc
  14:	00000000 	andeq	r0, r0, r0
  18:	e59ff0e0 	ldr	pc, [pc, #224]	; 0x100
  1c:	e59ff0e0 	ldr	pc, [pc, #224]	; 0x104
  20:	f10c0080 	cpsid	i
  24:	f1020012 	cps	#18
  28:	e59fd0d8 	ldr	sp, [pc, #216]	; 0x108
  2c:	e10f0000 	mrs	r0, CPSR
  30:	e3c0001f 	bic	r0, r0, #31
  34:	e3800012 	orr	r0, r0, #18
  38:	e129f000 	msr	CPSR_fc, r0
  3c:	e59fd0c8 	ldr	sp, [pc, #200]	; 0x10c
  40:	f1020013 	cps	#19
  44:	e3a0d321 	mov	sp, #-2080374784	; 0x84000000
  48:	f1080080 	cpsie	i
  4c:	eb00001a 	bl	0xbc
  50:	ea00003a 	b	0x140
  54:	e92d5fff 	push	{r0, r1, r2, r3, r4, r5, r6, r7, r8, r9, sl, fp, ip, lr}
  58:	e14f0000 	mrs	r0, SPSR
  5c:	e52d0004 	push	{r0}		; (str r0, [sp, #-4]!)
  60:	ee9f1f10 	mrc	15, 4, r1, cr15, cr0, {0}
  64:	e2811a02 	add	r1, r1, #8192	; 0x2000
  68:	e591000c 	ldr	r0, [r1, #12]
  6c:	e92d0003 	push	{r0, r1}
  70:	eb0000bf 	bl	0x374
  74:	e8bd0003 	pop	{r0, r1}
  78:	e5810010 	str	r0, [r1, #16]
  7c:	e49d0004 	pop	{r0}		; (ldr r0, [sp], #4)
  80:	e16ff000 	msr	SPSR_fsxc, r0
  84:	e8bd5fff 	pop	{r0, r1, r2, r3, r4, r5, r6, r7, r8, r9, sl, fp, ip, lr}
  88:	e25ef004 	subs	pc, lr, #4
  8c:	e59f0070 	ldr	r0, [pc, #112]	; 0x104
  90:	e12fff10 	bx	r0
  94:	e59f0054 	ldr	r0, [pc, #84]	; 0xf0
  98:	e12fff10 	bx	r0
  9c:	e59f0050 	ldr	r0, [pc, #80]	; 0xf4
  a0:	e12fff10 	bx	r0
  a4:	e59f004c 	ldr	r0, [pc, #76]	; 0xf8
  a8:	e12fff10 	bx	r0
  ac:	e59f0048 	ldr	r0, [pc, #72]	; 0xfc
  b0:	e12fff10 	bx	r0
  b4:	e59f0054 	ldr	r0, [pc, #84]	; 0x110
  b8:	e12fff10 	bx	r0
  bc:	e59f1050 	ldr	r1, [pc, #80]	; 0x114
  c0:	e59f2050 	ldr	r2, [pc, #80]	; 0x118
  c4:	e59f3050 	ldr	r3, [pc, #80]	; 0x11c
  c8:	e1a0f00e 	mov	pc, lr
  cc:	e59f104c 	ldr	r1, [pc, #76]	; 0x120
  d0:	e59f204c 	ldr	r2, [pc, #76]	; 0x124
  d4:	e3a03000 	mov	r3, #0
  d8:	e5c13000 	strb	r3, [r1]
  dc:	e2811001 	add	r1, r1, #1
  e0:	e1510002 	cmp	r1, r2
  e4:	1afffffb 	bne	0xd8
  e8:	e1a0f00e 	mov	pc, lr
  ec:	80002020 	andhi	r2, r0, r0, lsr #32
  f0:	80002094 	mulhi	r0, r4, r0
  f4:	8000209c 	mulhi	r0, ip, r0
  f8:	800020a4 	andhi	r2, r0, r4, lsr #1
  fc:	800020ac 	andhi	r2, r0, ip, lsr #1
 100:	80002054 	andhi	r2, r0, r4, asr r0
 104:	8000208c 	andhi	r2, r0, ip, lsl #1
 108:	9ff00000 	svcls	0x00f00000	; IMB
 10c:	80600000 	rsbhi	r0, r0, r0
 110:	800020b4 	strhhi	r2, [r0], -r4
 114:	800027b8 			; <UNDEFINED> instruction: 0x800027b8
 118:	00900000 	addseq	r0, r0, r0
 11c:	00900000 	addseq	r0, r0, r0
 120:	00900000 	addseq	r0, r0, r0
 124:	00900504 	addseq	r0, r0, r4, lsl #10
 128:	00001541 	andeq	r1, r0, r1, asr #10
 12c:	61656100 	cmnvs	r5, r0, lsl #2
 130:	01006962 	tsteq	r0, r2, ror #18
 134:	0000000b 	andeq	r0, r0, fp
 138:	01080606 	tsteq	r8, r6, lsl #12
 13c:	00000109 	andeq	r0, r0, r9, lsl #2
 140:	e92d4800 	push	{fp, lr}
 144:	e28db004 	add	fp, sp, #4
 148:	eb00003e 	bl	0x248
 14c:	eb0000dd 	bl	0x4c8
 150:	eb000132 	bl	0x620
 154:	e59f3038 	ldr	r3, [pc, #56]	; 0x194
 158:	e5d33000 	ldrb	r3, [r3]
 15c:	e3530000 	cmp	r3, #0
 160:	0a000005 	beq	0x17c
 164:	e59f202c 	ldr	r2, [pc, #44]	; 0x198
 168:	e59f3028 	ldr	r3, [pc, #40]	; 0x198
 16c:	e5933000 	ldr	r3, [r3]
 170:	e3833010 	orr	r3, r3, #16
 174:	e5823000 	str	r3, [r2]
 178:	eafffff5 	b	0x154
 17c:	e59f2014 	ldr	r2, [pc, #20]	; 0x198
 180:	e59f3010 	ldr	r3, [pc, #16]	; 0x198
 184:	e5933000 	ldr	r3, [r3]
 188:	e3c33010 	bic	r3, r3, #16
 18c:	e5823000 	str	r3, [r2]
 190:	eaffffef 	b	0x154
 194:	00900000 	addseq	r0, r0, r0
 198:	0209c000 	andeq	ip, r9, #0
 19c:	e52db004 	push	{fp}		; (str fp, [sp, #-4]!)
 1a0:	e28db000 	add	fp, sp, #0
 1a4:	e24dd014 	sub	sp, sp, #20
 1a8:	e50b0010 	str	r0, [fp, #-16]
 1ac:	e3a03000 	mov	r3, #0
 1b0:	e50b3008 	str	r3, [fp, #-8]
 1b4:	e3a03000 	mov	r3, #0
 1b8:	e50b3008 	str	r3, [fp, #-8]
 1bc:	ea000003 	b	0x1d0
 1c0:	e1a00000 	nop			; (mov r0, r0)
 1c4:	e51b3008 	ldr	r3, [fp, #-8]
 1c8:	e2833001 	add	r3, r3, #1
 1cc:	e50b3008 	str	r3, [fp, #-8]
 1d0:	e51b2008 	ldr	r2, [fp, #-8]
 1d4:	e51b3010 	ldr	r3, [fp, #-16]
 1d8:	e1520003 	cmp	r2, r3
 1dc:	3afffff7 	bcc	0x1c0
 1e0:	e1a00000 	nop			; (mov r0, r0)
 1e4:	e28bd000 	add	sp, fp, #0
 1e8:	e49db004 	pop	{fp}		; (ldr fp, [sp], #4)
 1ec:	e12fff1e 	bx	lr
 1f0:	e52db004 	push	{fp}		; (str fp, [sp, #-4]!)
 1f4:	e28db000 	add	fp, sp, #0
 1f8:	e24dd014 	sub	sp, sp, #20
 1fc:	e1a03000 	mov	r3, r0
 200:	e50b100c 	str	r1, [fp, #-12]
 204:	e50b2010 	str	r2, [fp, #-16]
 208:	e14b30b6 	strh	r3, [fp, #-6]
 20c:	e15b30f6 	ldrsh	r3, [fp, #-6]
 210:	e59f102c 	ldr	r1, [pc, #44]	; 0x244
 214:	e51b200c 	ldr	r2, [fp, #-12]
 218:	e7812183 	str	r2, [r1, r3, lsl #3]
 21c:	e15b30f6 	ldrsh	r3, [fp, #-6]
 220:	e59f201c 	ldr	r2, [pc, #28]	; 0x244
 224:	e1a03183 	lsl	r3, r3, #3
 228:	e0823003 	add	r3, r2, r3
 22c:	e51b2010 	ldr	r2, [fp, #-16]
 230:	e5832004 	str	r2, [r3, #4]
 234:	e1a00000 	nop			; (mov r0, r0)
 238:	e28bd000 	add	sp, fp, #0
 23c:	e49db004 	pop	{fp}		; (ldr fp, [sp], #4)
 240:	e12fff1e 	bx	lr
 244:	00900004 	addseq	r0, r0, r4
 248:	e92d4800 	push	{fp, lr}
 24c:	e28db004 	add	fp, sp, #4
 250:	e24dd018 	sub	sp, sp, #24
 254:	ee9f3f10 	mrc	15, 4, r3, cr15, cr0, {0}
 258:	e50b300c 	str	r3, [fp, #-12]
 25c:	e51b300c 	ldr	r3, [fp, #-12]
 260:	e1a03823 	lsr	r3, r3, #16
 264:	e1a03803 	lsl	r3, r3, #16
 268:	e50b3010 	str	r3, [fp, #-16]
 26c:	e51b3010 	ldr	r3, [fp, #-16]
 270:	e2833a01 	add	r3, r3, #4096	; 0x1000
 274:	e5933004 	ldr	r3, [r3, #4]
 278:	e203301f 	and	r3, r3, #31
 27c:	e2833001 	add	r3, r3, #1
 280:	e50b3014 	str	r3, [fp, #-20]	; 0xffffffec
 284:	e3a03000 	mov	r3, #0
 288:	e50b3018 	str	r3, [fp, #-24]	; 0xffffffe8
 28c:	ea000007 	b	0x2b0
 290:	e51b3010 	ldr	r3, [fp, #-16]
 294:	e51b2018 	ldr	r2, [fp, #-24]	; 0xffffffe8
 298:	e2822e46 	add	r2, r2, #1120	; 0x460
 29c:	e3e01000 	mvn	r1, #0
 2a0:	e7831102 	str	r1, [r3, r2, lsl #2]
 2a4:	e51b3018 	ldr	r3, [fp, #-24]	; 0xffffffe8
 2a8:	e2833001 	add	r3, r3, #1
 2ac:	e50b3018 	str	r3, [fp, #-24]	; 0xffffffe8
 2b0:	e51b2014 	ldr	r2, [fp, #-20]	; 0xffffffec
 2b4:	e51b3018 	ldr	r3, [fp, #-24]	; 0xffffffe8
 2b8:	e1520003 	cmp	r2, r3
 2bc:	8afffff3 	bhi	0x290
 2c0:	e51b3010 	ldr	r3, [fp, #-16]
 2c4:	e2833a02 	add	r3, r3, #8192	; 0x2000
 2c8:	e1a02003 	mov	r2, r3
 2cc:	e3a030f8 	mov	r3, #248	; 0xf8
 2d0:	e5823004 	str	r3, [r2, #4]
 2d4:	e51b3010 	ldr	r3, [fp, #-16]
 2d8:	e2833a02 	add	r3, r3, #8192	; 0x2000
 2dc:	e1a02003 	mov	r2, r3
 2e0:	e3a03002 	mov	r3, #2
 2e4:	e5823008 	str	r3, [r2, #8]
 2e8:	e51b3010 	ldr	r3, [fp, #-16]
 2ec:	e2833a01 	add	r3, r3, #4096	; 0x1000
 2f0:	e1a02003 	mov	r2, r3
 2f4:	e3a03001 	mov	r3, #1
 2f8:	e5823000 	str	r3, [r2]
 2fc:	e51b3010 	ldr	r3, [fp, #-16]
 300:	e2833a02 	add	r3, r3, #8192	; 0x2000
 304:	e1a02003 	mov	r2, r3
 308:	e3a03001 	mov	r3, #1
 30c:	e5823000 	str	r3, [r2]
 310:	e3a03000 	mov	r3, #0
 314:	e50b3008 	str	r3, [fp, #-8]
 318:	ea000009 	b	0x344
 31c:	e51b3008 	ldr	r3, [fp, #-8]
 320:	e1a03803 	lsl	r3, r3, #16
 324:	e1a03843 	asr	r3, r3, #16
 328:	e3a02000 	mov	r2, #0
 32c:	e3a01000 	mov	r1, #0
 330:	e1a00003 	mov	r0, r3
 334:	ebffffad 	bl	0x1f0
 338:	e51b3008 	ldr	r3, [fp, #-8]
 33c:	e2833001 	add	r3, r3, #1
 340:	e50b3008 	str	r3, [fp, #-8]
 344:	e51b3008 	ldr	r3, [fp, #-8]
 348:	e353009f 	cmp	r3, #159	; 0x9f
 34c:	dafffff2 	ble	0x31c
 350:	e59f3018 	ldr	r3, [pc, #24]	; 0x370
 354:	e50b301c 	str	r3, [fp, #-28]	; 0xffffffe4
 358:	e51b301c 	ldr	r3, [fp, #-28]	; 0xffffffe4
 35c:	ee0c3f10 	mcr	15, 0, r3, cr12, cr0, {0}
 360:	e1a00000 	nop			; (mov r0, r0)
 364:	e24bd004 	sub	sp, fp, #4
 368:	e8bd4800 	pop	{fp, lr}
 36c:	e12fff1e 	bx	lr
 370:	80002000 	andhi	r2, r0, r0
 374:	e92d4800 	push	{fp, lr}
 378:	e28db004 	add	fp, sp, #4
 37c:	e24dd010 	sub	sp, sp, #16
 380:	e50b0010 	str	r0, [fp, #-16]
 384:	e51b3010 	ldr	r3, [fp, #-16]
 388:	e1a03b03 	lsl	r3, r3, #22
 38c:	e1a03b23 	lsr	r3, r3, #22
 390:	e50b3008 	str	r3, [fp, #-8]
 394:	e51b3008 	ldr	r3, [fp, #-8]
 398:	e59f2074 	ldr	r2, [pc, #116]	; 0x414
 39c:	e1530002 	cmp	r3, r2
 3a0:	0a000015 	beq	0x3fc
 3a4:	e51b3008 	ldr	r3, [fp, #-8]
 3a8:	e353009f 	cmp	r3, #159	; 0x9f
 3ac:	8a000012 	bhi	0x3fc
 3b0:	e59f2060 	ldr	r2, [pc, #96]	; 0x418
 3b4:	e51b3008 	ldr	r3, [fp, #-8]
 3b8:	e7923183 	ldr	r3, [r2, r3, lsl #3]
 3bc:	e3530000 	cmp	r3, #0
 3c0:	0a00000f 	beq	0x404
 3c4:	e59f204c 	ldr	r2, [pc, #76]	; 0x418
 3c8:	e51b3008 	ldr	r3, [fp, #-8]
 3cc:	e7922183 	ldr	r2, [r2, r3, lsl #3]
 3d0:	e59f1040 	ldr	r1, [pc, #64]	; 0x418
 3d4:	e51b3008 	ldr	r3, [fp, #-8]
 3d8:	e1a03183 	lsl	r3, r3, #3
 3dc:	e0813003 	add	r3, r1, r3
 3e0:	e5933004 	ldr	r3, [r3, #4]
 3e4:	e1a01003 	mov	r1, r3
 3e8:	e51b0010 	ldr	r0, [fp, #-16]
 3ec:	e1a0e00f 	mov	lr, pc
 3f0:	e12fff12 	bx	r2
 3f4:	e1a00000 	nop			; (mov r0, r0)
 3f8:	ea000001 	b	0x404
 3fc:	e1a00000 	nop			; (mov r0, r0)
 400:	ea000000 	b	0x408
 404:	e1a00000 	nop			; (mov r0, r0)
 408:	e24bd004 	sub	sp, fp, #4
 40c:	e8bd4800 	pop	{fp, lr}
 410:	e12fff1e 	bx	lr
 414:	000003ff 	strdeq	r0, [r0], -pc	; <UNPREDICTABLE>
 418:	00900004 	addseq	r0, r0, r4
 41c:	e52db004 	push	{fp}		; (str fp, [sp, #-4]!)
 420:	e28db000 	add	fp, sp, #0
 424:	e24dd014 	sub	sp, sp, #20
 428:	e50b0008 	str	r0, [fp, #-8]
 42c:	e50b100c 	str	r1, [fp, #-12]
 430:	e50b2010 	str	r2, [fp, #-16]
 434:	e50b3014 	str	r3, [fp, #-20]	; 0xffffffec
 438:	e51b3008 	ldr	r3, [fp, #-8]
 43c:	e51b200c 	ldr	r2, [fp, #-12]
 440:	e202100f 	and	r1, r2, #15
 444:	e59b2008 	ldr	r2, [fp, #8]
 448:	e1a02202 	lsl	r2, r2, #4
 44c:	e2022010 	and	r2, r2, #16
 450:	e1812002 	orr	r2, r1, r2
 454:	e5832000 	str	r2, [r3]
 458:	e51b3010 	ldr	r3, [fp, #-16]
 45c:	e3530000 	cmp	r3, #0
 460:	0a000003 	beq	0x474
 464:	e51b3010 	ldr	r3, [fp, #-16]
 468:	e51b2014 	ldr	r2, [fp, #-20]	; 0xffffffec
 46c:	e2022007 	and	r2, r2, #7
 470:	e5832000 	str	r2, [r3]
 474:	e1a00000 	nop			; (mov r0, r0)
 478:	e28bd000 	add	sp, fp, #0
 47c:	e49db004 	pop	{fp}		; (ldr fp, [sp], #4)
 480:	e12fff1e 	bx	lr
 484:	e52db004 	push	{fp}		; (str fp, [sp, #-4]!)
 488:	e28db000 	add	fp, sp, #0
 48c:	e24dd014 	sub	sp, sp, #20
 490:	e50b0008 	str	r0, [fp, #-8]
 494:	e50b100c 	str	r1, [fp, #-12]
 498:	e50b2010 	str	r2, [fp, #-16]
 49c:	e50b3014 	str	r3, [fp, #-20]	; 0xffffffec
 4a0:	e59b3004 	ldr	r3, [fp, #4]
 4a4:	e3530000 	cmp	r3, #0
 4a8:	0a000002 	beq	0x4b8
 4ac:	e59b3004 	ldr	r3, [fp, #4]
 4b0:	e59b2008 	ldr	r2, [fp, #8]
 4b4:	e5832000 	str	r2, [r3]
 4b8:	e1a00000 	nop			; (mov r0, r0)
 4bc:	e28bd000 	add	sp, fp, #0
 4c0:	e49db004 	pop	{fp}		; (ldr fp, [sp], #4)
 4c4:	e12fff1e 	bx	lr
 4c8:	e92d4800 	push	{fp, lr}
 4cc:	e28db004 	add	fp, sp, #4
 4d0:	e24dd008 	sub	sp, sp, #8
 4d4:	e59f3084 	ldr	r3, [pc, #132]	; 0x560
 4d8:	e3e02000 	mvn	r2, #0
 4dc:	e583206c 	str	r2, [r3, #108]	; 0x6c
 4e0:	e3a03000 	mov	r3, #0
 4e4:	e58d3004 	str	r3, [sp, #4]
 4e8:	e59f3074 	ldr	r3, [pc, #116]	; 0x564
 4ec:	e58d3000 	str	r3, [sp]
 4f0:	e3a03000 	mov	r3, #0
 4f4:	e3a02000 	mov	r2, #0
 4f8:	e3a01005 	mov	r1, #5
 4fc:	e59f0064 	ldr	r0, [pc, #100]	; 0x568
 500:	ebffffc5 	bl	0x41c
 504:	e59f3060 	ldr	r3, [pc, #96]	; 0x56c
 508:	e58d3004 	str	r3, [sp, #4]
 50c:	e59f3050 	ldr	r3, [pc, #80]	; 0x564
 510:	e58d3000 	str	r3, [sp]
 514:	e3a03000 	mov	r3, #0
 518:	e3a02000 	mov	r2, #0
 51c:	e3a01005 	mov	r1, #5
 520:	e59f0040 	ldr	r0, [pc, #64]	; 0x568
 524:	ebffffd6 	bl	0x484
 528:	e59f2040 	ldr	r2, [pc, #64]	; 0x570
 52c:	e59f303c 	ldr	r3, [pc, #60]	; 0x570
 530:	e5933004 	ldr	r3, [r3, #4]
 534:	e3833010 	orr	r3, r3, #16
 538:	e5823004 	str	r3, [r2, #4]
 53c:	e59f202c 	ldr	r2, [pc, #44]	; 0x570
 540:	e59f3028 	ldr	r3, [pc, #40]	; 0x570
 544:	e5933000 	ldr	r3, [r3]
 548:	e3833010 	orr	r3, r3, #16
 54c:	e5823000 	str	r3, [r2]
 550:	e1a00000 	nop			; (mov r0, r0)
 554:	e24bd004 	sub	sp, fp, #4
 558:	e8bd4800 	pop	{fp, lr}
 55c:	e12fff1e 	bx	lr
 560:	020c4000 	andeq	r4, ip, #0
 564:	020e02f8 	andeq	r0, lr, #248, 4	; 0x8000000f
 568:	020e006c 	andeq	r0, lr, #108	; 0x6c
 56c:	000010b0 	strheq	r1, [r0], -r0
 570:	0209c000 	andeq	ip, r9, #0
 574:	e52db004 	push	{fp}		; (str fp, [sp, #-4]!)
 578:	e28db000 	add	fp, sp, #0
 57c:	e24dd014 	sub	sp, sp, #20
 580:	e50b0008 	str	r0, [fp, #-8]
 584:	e50b100c 	str	r1, [fp, #-12]
 588:	e50b2010 	str	r2, [fp, #-16]
 58c:	e50b3014 	str	r3, [fp, #-20]	; 0xffffffec
 590:	e51b3008 	ldr	r3, [fp, #-8]
 594:	e51b200c 	ldr	r2, [fp, #-12]
 598:	e202100f 	and	r1, r2, #15
 59c:	e59b2008 	ldr	r2, [fp, #8]
 5a0:	e1a02202 	lsl	r2, r2, #4
 5a4:	e2022010 	and	r2, r2, #16
 5a8:	e1812002 	orr	r2, r1, r2
 5ac:	e5832000 	str	r2, [r3]
 5b0:	e51b3010 	ldr	r3, [fp, #-16]
 5b4:	e3530000 	cmp	r3, #0
 5b8:	0a000003 	beq	0x5cc
 5bc:	e51b3010 	ldr	r3, [fp, #-16]
 5c0:	e51b2014 	ldr	r2, [fp, #-20]	; 0xffffffec
 5c4:	e2022007 	and	r2, r2, #7
 5c8:	e5832000 	str	r2, [r3]
 5cc:	e1a00000 	nop			; (mov r0, r0)
 5d0:	e28bd000 	add	sp, fp, #0
 5d4:	e49db004 	pop	{fp}		; (ldr fp, [sp], #4)
 5d8:	e12fff1e 	bx	lr
 5dc:	e52db004 	push	{fp}		; (str fp, [sp, #-4]!)
 5e0:	e28db000 	add	fp, sp, #0
 5e4:	e24dd014 	sub	sp, sp, #20
 5e8:	e50b0008 	str	r0, [fp, #-8]
 5ec:	e50b100c 	str	r1, [fp, #-12]
 5f0:	e50b2010 	str	r2, [fp, #-16]
 5f4:	e50b3014 	str	r3, [fp, #-20]	; 0xffffffec
 5f8:	e59b3004 	ldr	r3, [fp, #4]
 5fc:	e3530000 	cmp	r3, #0
 600:	0a000002 	beq	0x610
 604:	e59b3004 	ldr	r3, [fp, #4]
 608:	e59b2008 	ldr	r2, [fp, #8]
 60c:	e5832000 	str	r2, [r3]
 610:	e1a00000 	nop			; (mov r0, r0)
 614:	e28bd000 	add	sp, fp, #0
 618:	e49db004 	pop	{fp}		; (ldr fp, [sp], #4)
 61c:	e12fff1e 	bx	lr
 620:	e92d4800 	push	{fp, lr}
 624:	e28db004 	add	fp, sp, #4
 628:	e24dd018 	sub	sp, sp, #24
 62c:	e59f30f8 	ldr	r3, [pc, #248]	; 0x72c
 630:	e3e02000 	mvn	r2, #0
 634:	e583206c 	str	r2, [r3, #108]	; 0x6c
 638:	e3a03000 	mov	r3, #0
 63c:	e58d3004 	str	r3, [sp, #4]
 640:	e59f30e8 	ldr	r3, [pc, #232]	; 0x730
 644:	e58d3000 	str	r3, [sp]
 648:	e3a03000 	mov	r3, #0
 64c:	e3a02000 	mov	r2, #0
 650:	e3a01005 	mov	r1, #5
 654:	e59f00d8 	ldr	r0, [pc, #216]	; 0x734
 658:	ebffffc5 	bl	0x574
 65c:	e59f30d4 	ldr	r3, [pc, #212]	; 0x738
 660:	e58d3004 	str	r3, [sp, #4]
 664:	e59f30c4 	ldr	r3, [pc, #196]	; 0x730
 668:	e58d3000 	str	r3, [sp]
 66c:	e3a03000 	mov	r3, #0
 670:	e3a02000 	mov	r2, #0
 674:	e3a01005 	mov	r1, #5
 678:	e59f00b4 	ldr	r0, [pc, #180]	; 0x734
 67c:	ebffffd6 	bl	0x5dc
 680:	e59f20b4 	ldr	r2, [pc, #180]	; 0x73c
 684:	e59f30b0 	ldr	r3, [pc, #176]	; 0x73c
 688:	e5933004 	ldr	r3, [r3, #4]
 68c:	e3c33002 	bic	r3, r3, #2
 690:	e5823004 	str	r3, [r2, #4]
 694:	e59f20a0 	ldr	r2, [pc, #160]	; 0x73c
 698:	e59f309c 	ldr	r3, [pc, #156]	; 0x73c
 69c:	e5933014 	ldr	r3, [r3, #20]
 6a0:	e3833002 	orr	r3, r3, #2
 6a4:	e5823014 	str	r3, [r2, #20]
 6a8:	e59f308c 	ldr	r3, [pc, #140]	; 0x73c
 6ac:	e3a02000 	mov	r2, #0
 6b0:	e583201c 	str	r2, [r3, #28]
 6b4:	e59f2080 	ldr	r2, [pc, #128]	; 0x73c
 6b8:	e59f307c 	ldr	r3, [pc, #124]	; 0x73c
 6bc:	e593300c 	ldr	r3, [r3, #12]
 6c0:	e3833008 	orr	r3, r3, #8
 6c4:	e582300c 	str	r3, [r2, #12]
 6c8:	e3a02000 	mov	r2, #0
 6cc:	e59f106c 	ldr	r1, [pc, #108]	; 0x740
 6d0:	e3a0006a 	mov	r0, #106	; 0x6a
 6d4:	ebfffec5 	bl	0x1f0
 6d8:	e3a0306a 	mov	r3, #106	; 0x6a
 6dc:	e14b30b6 	strh	r3, [fp, #-6]
 6e0:	ee9f3f10 	mrc	15, 4, r3, cr15, cr0, {0}
 6e4:	e50b300c 	str	r3, [fp, #-12]
 6e8:	e51b300c 	ldr	r3, [fp, #-12]
 6ec:	e1a03823 	lsr	r3, r3, #16
 6f0:	e1a03803 	lsl	r3, r3, #16
 6f4:	e50b3010 	str	r3, [fp, #-16]
 6f8:	e15b30f6 	ldrsh	r3, [fp, #-6]
 6fc:	e1a022a3 	lsr	r2, r3, #5
 700:	e15b30b6 	ldrh	r3, [fp, #-6]
 704:	e203301f 	and	r3, r3, #31
 708:	e3a01001 	mov	r1, #1
 70c:	e1a01311 	lsl	r1, r1, r3
 710:	e51b3010 	ldr	r3, [fp, #-16]
 714:	e2822d11 	add	r2, r2, #1088	; 0x440
 718:	e7831102 	str	r1, [r3, r2, lsl #2]
 71c:	e1a00000 	nop			; (mov r0, r0)
 720:	e24bd004 	sub	sp, fp, #4
 724:	e8bd4800 	pop	{fp, lr}
 728:	e12fff1e 	bx	lr
 72c:	020c4000 	andeq	r4, ip, #0
 730:	02290050 	eoreq	r0, r9, #80	; 0x50
 734:	0229000c 	eoreq	r0, r9, #12
 738:	000010b0 	strheq	r1, [r0], -r0
 73c:	020ac000 	andeq	ip, sl, #0
 740:	80002744 	andhi	r2, r0, r4, asr #14
 744:	e52db004 	push	{fp}		; (str fp, [sp, #-4]!)
 748:	e28db000 	add	fp, sp, #0
 74c:	e59f305c 	ldr	r3, [pc, #92]	; 0x7b0
 750:	e5933000 	ldr	r3, [r3]
 754:	e2033002 	and	r3, r3, #2
 758:	e3530000 	cmp	r3, #0
 75c:	0a00000a 	beq	0x78c
 760:	e59f304c 	ldr	r3, [pc, #76]	; 0x7b4
 764:	e5d33000 	ldrb	r3, [r3]
 768:	e3530000 	cmp	r3, #0
 76c:	0a000003 	beq	0x780
 770:	e59f303c 	ldr	r3, [pc, #60]	; 0x7b4
 774:	e3a02000 	mov	r2, #0
 778:	e5c32000 	strb	r2, [r3]
 77c:	ea000002 	b	0x78c
 780:	e59f302c 	ldr	r3, [pc, #44]	; 0x7b4
 784:	e3a02001 	mov	r2, #1
 788:	e5c32000 	strb	r2, [r3]
 78c:	e59f201c 	ldr	r2, [pc, #28]	; 0x7b0
 790:	e59f3018 	ldr	r3, [pc, #24]	; 0x7b0
 794:	e5933018 	ldr	r3, [r3, #24]
 798:	e3833002 	orr	r3, r3, #2
 79c:	e5823018 	str	r3, [r2, #24]
 7a0:	e1a00000 	nop			; (mov r0, r0)
 7a4:	e28bd000 	add	sp, fp, #0
 7a8:	e49db004 	pop	{fp}		; (ldr fp, [sp], #4)
 7ac:	e12fff1e 	bx	lr
 7b0:	020ac000 	andeq	ip, sl, #0
 7b4:	00900000 	addseq	r0, r0, r0
